; Function Attrs: nounwind uwtable
define void @Kit_DsdWriteFromTruth(ptr noundef %0, ptr noundef %1, i32 noundef %2) local_unnamed_addr #0 {
  %4 = tail call noundef ptr @Kit_DsdDecomposeInt(ptr noundef %1, i32 noundef %2, i32 noundef 8)
  %5 = tail call ptr @Kit_DsdExpand(ptr noundef %4)
  %6 = getelementptr inbounds nuw i8, ptr %5, i64 6
  %7 = load i16, ptr %6, align 2, !tbaa !51
  %8 = and i16 %7, 1
  %.not.i = icmp eq i16 %8, 0
  br i1 %.not.i, label %Kit_DsdWrite.exit, label %9

9:                                                ; preds = %3
  %10 = getelementptr inbounds nuw i8, ptr %0, i64 1
  store i8 33, ptr %0, align 1, !tbaa !47
  %.pre.i = load i16, ptr %6, align 2, !tbaa !51
  br label %Kit_DsdWrite.exit

Kit_DsdWrite.exit:                                ; preds = %3, %9
  %11 = phi i16 [ %.pre.i, %9 ], [ %7, %3 ]
  %.0.i = phi ptr [ %10, %9 ], [ %0, %3 ]
  %12 = lshr i16 %11, 1
  %13 = zext nneg i16 %12 to i32
  %14 = tail call ptr @Kit_DsdWrite_rec(ptr noundef %.0.i, ptr noundef nonnull readonly %5, i32 noundef %13)
  store i8 0, ptr %14, align 1, !tbaa !47
  tail call void @Kit_DsdVerify(ptr noundef nonnull %5, ptr noundef %1, i32 noundef %2)
  tail call void @Kit_DsdNtkFree(ptr noundef nonnull %5)
  tail call void @Kit_DsdNtkFree(ptr noundef %4)
  ret void
}